target datalayout = "e-m:e-p270:32:32-p271:32:32-p272:64:64-i64:64-i128:128-f80:128-n8:16:32:64-S128"
target triple = "x86_64-pc-linux-gnu"

%struct.satset_t = type { i32, i32, [0 x i32] }
%struct.Vec_Int_t_ = type { i32, i32, ptr }
%struct.Vec_Set_t_ = type { i32, i32, i32, i32, i32, i32, ptr }

; Function Attrs: inlinehint nounwind uwtable
define internal i32 @Vec_SetHandShift(ptr noundef %0, i32 noundef %1) #1 {
  %3 = alloca ptr, align 8
  %4 = alloca i32, align 4
  store ptr %0, ptr %3, align 8, !tbaa !3
  store i32 %1, ptr %4, align 4, !tbaa !8
  %5 = load i32, ptr %4, align 4, !tbaa !8
  %6 = load ptr, ptr %3, align 8, !tbaa !3
  %7 = getelementptr inbounds nuw %struct.Vec_Set_t_, ptr %6, i32 0, i32 1
  %8 = load i32, ptr %7, align 4, !tbaa !68
  %9 = and i32 %5, %8
  ret i32 %9
}

; Function Attrs: inlinehint nounwind uwtable
define internal i32 @Vec_SetHandPage(ptr noundef %0, i32 noundef %1) #1 {
  %3 = alloca ptr, align 8
  %4 = alloca i32, align 4
  store ptr %0, ptr %3, align 8, !tbaa !3
  store i32 %1, ptr %4, align 4, !tbaa !8
  %5 = load i32, ptr %4, align 4, !tbaa !8
  %6 = load ptr, ptr %3, align 8, !tbaa !3
  %7 = getelementptr inbounds nuw %struct.Vec_Set_t_, ptr %6, i32 0, i32 0
  %8 = load i32, ptr %7, align 8, !tbaa !55
  %9 = ashr i32 %5, %8
  ret i32 %9
}

; Function Attrs: inlinehint nounwind uwtable
define internal void @Vec_IntGrow(ptr noundef %0, i32 noundef %1) #1 {
  %3 = alloca ptr, align 8
  %4 = alloca i32, align 4
  store ptr %0, ptr %3, align 8, !tbaa !10
  store i32 %1, ptr %4, align 4, !tbaa !8
  %5 = load ptr, ptr %3, align 8, !tbaa !10
  %6 = getelementptr inbounds nuw %struct.Vec_Int_t_, ptr %5, i32 0, i32 0
  %7 = load i32, ptr %6, align 8, !tbaa !24
  %8 = load i32, ptr %4, align 4, !tbaa !8
  %9 = icmp sge i32 %7, %8
  br i1 %9, label %10, label %11

10:                                               ; preds = %2
  br label %36

11:                                               ; preds = %2
  %12 = load ptr, ptr %3, align 8, !tbaa !10
  %13 = getelementptr inbounds nuw %struct.Vec_Int_t_, ptr %12, i32 0, i32 2
  %14 = load ptr, ptr %13, align 8, !tbaa !21
  %15 = icmp ne ptr %14, null
  br i1 %15, label %16, label %24

16:                                               ; preds = %11
  %17 = load ptr, ptr %3, align 8, !tbaa !10
  %18 = getelementptr inbounds nuw %struct.Vec_Int_t_, ptr %17, i32 0, i32 2
  %19 = load ptr, ptr %18, align 8, !tbaa !21
  %20 = load i32, ptr %4, align 4, !tbaa !8
  %21 = sext i32 %20 to i64
  %22 = mul i64 4, %21
  %23 = call ptr @realloc(ptr noundef %19, i64 noundef %22) #14
  br label %29

24:                                               ; preds = %11
  %25 = load i32, ptr %4, align 4, !tbaa !8
  %26 = sext i32 %25 to i64
  %27 = mul i64 4, %26
  %28 = call noalias ptr @malloc(i64 noundef %27) #12
  br label %29

29:                                               ; preds = %24, %16
  %30 = phi ptr [ %23, %16 ], [ %28, %24 ]
  %31 = load ptr, ptr %3, align 8, !tbaa !10
  %32 = getelementptr inbounds nuw %struct.Vec_Int_t_, ptr %31, i32 0, i32 2
  store ptr %30, ptr %32, align 8, !tbaa !21
  %33 = load i32, ptr %4, align 4, !tbaa !8
  %34 = load ptr, ptr %3, align 8, !tbaa !10
  %35 = getelementptr inbounds nuw %struct.Vec_Int_t_, ptr %34, i32 0, i32 0
  store i32 %33, ptr %35, align 8, !tbaa !24
  br label %36

36:                                               ; preds = %29, %10
  ret void
}

; Function Attrs: inlinehint nounwind uwtable
define internal ptr @Vec_SetEntry(ptr noundef %0, i32 noundef %1) #1 {
  %3 = alloca ptr, align 8
  %4 = alloca i32, align 4
  store ptr %0, ptr %3, align 8, !tbaa !3
  store i32 %1, ptr %4, align 4, !tbaa !8
  %5 = load ptr, ptr %3, align 8, !tbaa !3
  %6 = getelementptr inbounds nuw %struct.Vec_Set_t_, ptr %5, i32 0, i32 6
  %7 = load ptr, ptr %6, align 8, !tbaa !36
  %8 = load ptr, ptr %3, align 8, !tbaa !3
  %9 = load i32, ptr %4, align 4, !tbaa !8
  %10 = call i32 @Vec_SetHandPage(ptr noundef %8, i32 noundef %9)
  %11 = sext i32 %10 to i64
  %12 = getelementptr inbounds ptr, ptr %7, i64 %11
  %13 = load ptr, ptr %12, align 8, !tbaa !37
  %14 = load ptr, ptr %3, align 8, !tbaa !3
  %15 = load i32, ptr %4, align 4, !tbaa !8
  %16 = call i32 @Vec_SetHandShift(ptr noundef %14, i32 noundef %15)
  %17 = sext i32 %16 to i64
  %18 = getelementptr inbounds i64, ptr %13, i64 %17
  ret ptr %18
}

; Function Attrs: inlinehint nounwind uwtable
define internal void @Vec_IntPush(ptr noundef %0, i32 noundef %1) #1 {
  %3 = alloca ptr, align 8
  %4 = alloca i32, align 4
  store ptr %0, ptr %3, align 8, !tbaa !10
  store i32 %1, ptr %4, align 4, !tbaa !8
  %5 = load ptr, ptr %3, align 8, !tbaa !10
  %6 = getelementptr inbounds nuw %struct.Vec_Int_t_, ptr %5, i32 0, i32 1
  %7 = load i32, ptr %6, align 4, !tbaa !18
  %8 = load ptr, ptr %3, align 8, !tbaa !10
  %9 = getelementptr inbounds nuw %struct.Vec_Int_t_, ptr %8, i32 0, i32 0
  %10 = load i32, ptr %9, align 8, !tbaa !24
  %11 = icmp eq i32 %7, %10
  br i1 %11, label %12, label %26

12:                                               ; preds = %2
  %13 = load ptr, ptr %3, align 8, !tbaa !10
  %14 = getelementptr inbounds nuw %struct.Vec_Int_t_, ptr %13, i32 0, i32 0
  %15 = load i32, ptr %14, align 8, !tbaa !24
  %16 = icmp slt i32 %15, 16
  br i1 %16, label %17, label %19

17:                                               ; preds = %12
  %18 = load ptr, ptr %3, align 8, !tbaa !10
  call void @Vec_IntGrow(ptr noundef %18, i32 noundef 16)
  br label %25

19:                                               ; preds = %12
  %20 = load ptr, ptr %3, align 8, !tbaa !10
  %21 = load ptr, ptr %3, align 8, !tbaa !10
  %22 = getelementptr inbounds nuw %struct.Vec_Int_t_, ptr %21, i32 0, i32 0
  %23 = load i32, ptr %22, align 8, !tbaa !24
  %24 = mul nsw i32 2, %23
  call void @Vec_IntGrow(ptr noundef %20, i32 noundef %24)
  br label %25

25:                                               ; preds = %19, %17
  br label %26

26:                                               ; preds = %25, %2
  %27 = load i32, ptr %4, align 4, !tbaa !8
  %28 = load ptr, ptr %3, align 8, !tbaa !10
  %29 = getelementptr inbounds nuw %struct.Vec_Int_t_, ptr %28, i32 0, i32 2
  %30 = load ptr, ptr %29, align 8, !tbaa !21
  %31 = load ptr, ptr %3, align 8, !tbaa !10
  %32 = getelementptr inbounds nuw %struct.Vec_Int_t_, ptr %31, i32 0, i32 1
  %33 = load i32, ptr %32, align 4, !tbaa !18
  %34 = add nsw i32 %33, 1
  store i32 %34, ptr %32, align 4, !tbaa !18
  %35 = sext i32 %33 to i64
  %36 = getelementptr inbounds i32, ptr %30, i64 %35
  store i32 %27, ptr %36, align 4, !tbaa !8
  ret void
}

; Function Attrs: inlinehint nounwind uwtable
define internal ptr @Proof_NodeRead(ptr noundef %0, i32 noundef %1) #1 {
  %3 = alloca ptr, align 8
  %4 = alloca i32, align 4
  store ptr %0, ptr %3, align 8, !tbaa !3
  store i32 %1, ptr %4, align 4, !tbaa !8
  %5 = load ptr, ptr %3, align 8, !tbaa !3
  %6 = load i32, ptr %4, align 4, !tbaa !8
  %7 = call ptr @Vec_SetEntry(ptr noundef %5, i32 noundef %6)
  ret ptr %7
}

; Function Attrs: nounwind uwtable
define void @Proof_CollectUsed_rec(ptr noundef %0, i32 noundef %1, ptr noundef %2) #0 {
  %4 = alloca ptr, align 8
  %5 = alloca i32, align 4
  %6 = alloca ptr, align 8
  %7 = alloca ptr, align 8
  %8 = alloca ptr, align 8
  %9 = alloca i32, align 4
  %10 = alloca i32, align 4
  store ptr %0, ptr %4, align 8, !tbaa !3
  store i32 %1, ptr %5, align 4, !tbaa !8
  store ptr %2, ptr %6, align 8, !tbaa !10
  call void @llvm.lifetime.start.p0(i64 8, ptr %7) #11
  call void @llvm.lifetime.start.p0(i64 8, ptr %8) #11
  %11 = load ptr, ptr %4, align 8, !tbaa !3
  %12 = load i32, ptr %5, align 4, !tbaa !8
  %13 = call ptr @Proof_NodeRead(ptr noundef %11, i32 noundef %12)
  store ptr %13, ptr %8, align 8, !tbaa !12
  call void @llvm.lifetime.start.p0(i64 4, ptr %9) #11
  %14 = load ptr, ptr %8, align 8, !tbaa !12
  %15 = getelementptr inbounds nuw %struct.satset_t, ptr %14, i32 0, i32 1
  %16 = load i32, ptr %15, align 4, !tbaa !14
  %17 = icmp ne i32 %16, 0
  br i1 %17, label %18, label %19

18:                                               ; preds = %3
  store i32 1, ptr %10, align 4
  br label %77

19:                                               ; preds = %3
  %20 = load ptr, ptr %8, align 8, !tbaa !12
  %21 = getelementptr inbounds nuw %struct.satset_t, ptr %20, i32 0, i32 1
  store i32 1, ptr %21, align 4, !tbaa !14
  store i32 0, ptr %9, align 4, !tbaa !8
  br label %22

22:                                               ; preds = %71, %19
  %23 = load i32, ptr %9, align 4, !tbaa !8
  %24 = load ptr, ptr %8, align 8, !tbaa !12
  %25 = load i32, ptr %24, align 4
  %26 = lshr i32 %25, 3
  %27 = icmp slt i32 %23, %26
  br i1 %27, label %28, label %50

28:                                               ; preds = %22
  %29 = load ptr, ptr %8, align 8, !tbaa !12
  %30 = getelementptr inbounds nuw %struct.satset_t, ptr %29, i32 0, i32 2
  %31 = load i32, ptr %9, align 4, !tbaa !8
  %32 = sext i32 %31 to i64
  %33 = getelementptr inbounds [0 x i32], ptr %30, i64 0, i64 %32
  %34 = load i32, ptr %33, align 4, !tbaa !8
  %35 = and i32 %34, 1
  %36 = icmp ne i32 %35, 0
  br i1 %36, label %37, label %38

37:                                               ; preds = %28
  br label %48

38:                                               ; preds = %28
  %39 = load ptr, ptr %4, align 8, !tbaa !3
  %40 = load ptr, ptr %8, align 8, !tbaa !12
  %41 = getelementptr inbounds nuw %struct.satset_t, ptr %40, i32 0, i32 2
  %42 = load i32, ptr %9, align 4, !tbaa !8
  %43 = sext i32 %42 to i64
  %44 = getelementptr inbounds [0 x i32], ptr %41, i64 0, i64 %43
  %45 = load i32, ptr %44, align 4, !tbaa !8
  %46 = ashr i32 %45, 2
  %47 = call ptr @Proof_NodeRead(ptr noundef %39, i32 noundef %46)
  br label %48

48:                                               ; preds = %38, %37
  %49 = phi ptr [ null, %37 ], [ %47, %38 ]
  store ptr %49, ptr %7, align 8, !tbaa !12
  br label %50

50:                                               ; preds = %48, %22
  %51 = phi i1 [ false, %22 ], [ true, %48 ]
  br i1 %51, label %52, label %74

52:                                               ; preds = %50
  %53 = load ptr, ptr %7, align 8, !tbaa !12
  %54 = icmp ne ptr %53, null
  br i1 %54, label %55, label %70

55:                                               ; preds = %52
  %56 = load ptr, ptr %7, align 8, !tbaa !12
  %57 = getelementptr inbounds nuw %struct.satset_t, ptr %56, i32 0, i32 1
  %58 = load i32, ptr %57, align 4, !tbaa !14
  %59 = icmp ne i32 %58, 0
  br i1 %59, label %70, label %60

60:                                               ; preds = %55
  %61 = load ptr, ptr %4, align 8, !tbaa !3
  %62 = load ptr, ptr %8, align 8, !tbaa !12
  %63 = getelementptr inbounds nuw %struct.satset_t, ptr %62, i32 0, i32 2
  %64 = load i32, ptr %9, align 4, !tbaa !8
  %65 = sext i32 %64 to i64
  %66 = getelementptr inbounds [0 x i32], ptr %63, i64 0, i64 %65
  %67 = load i32, ptr %66, align 4, !tbaa !8
  %68 = ashr i32 %67, 2
  %69 = load ptr, ptr %6, align 8, !tbaa !10
  call void @Proof_CollectUsed_rec(ptr noundef %61, i32 noundef %68, ptr noundef %69)
  br label %70

70:                                               ; preds = %60, %55, %52
  br label %71

71:                                               ; preds = %70
  %72 = load i32, ptr %9, align 4, !tbaa !8
  %73 = add nsw i32 %72, 1
  store i32 %73, ptr %9, align 4, !tbaa !8
  br label %22, !llvm.loop !29

74:                                               ; preds = %50
  %75 = load ptr, ptr %6, align 8, !tbaa !10
  %76 = load i32, ptr %5, align 4, !tbaa !8
  call void @Vec_IntPush(ptr noundef %75, i32 noundef %76)
  store i32 0, ptr %10, align 4
  br label %77

77:                                               ; preds = %74, %18
  call void @llvm.lifetime.end.p0(i64 4, ptr %9) #11
  call void @llvm.lifetime.end.p0(i64 8, ptr %8) #11
  call void @llvm.lifetime.end.p0(i64 8, ptr %7) #11
  %78 = load i32, ptr %10, align 4
  switch i32 %78, label %80 [
    i32 0, label %79
    i32 1, label %79
  ]

79:                                               ; preds = %77, %77
  ret void

80:                                               ; preds = %77
  unreachable
}