; Function Attrs: nounwind uwtable
define void @Proof_CollectUsed_rec(ptr noundef readonly captures(none) %0, i32 noundef %1, ptr noundef captures(none) %2) local_unnamed_addr #3 {
  %4 = getelementptr inbounds nuw i8, ptr %0, i64 24
  %5 = load ptr, ptr %4, align 8, !tbaa !3
  %.val.i.i = load i32, ptr %0, align 8, !tbaa !10
  %6 = ashr i32 %1, %.val.i.i
  %7 = sext i32 %6 to i64
  %8 = getelementptr inbounds ptr, ptr %5, i64 %7
  %9 = load ptr, ptr %8, align 8, !tbaa !11
  %10 = getelementptr i8, ptr %0, i64 4
  %.val4.i.i = load i32, ptr %10, align 4, !tbaa !13
  %11 = and i32 %.val4.i.i, %1
  %12 = sext i32 %11 to i64
  %13 = getelementptr inbounds i64, ptr %9, i64 %12
  %14 = getelementptr inbounds nuw i8, ptr %13, i64 4
  %15 = load i32, ptr %14, align 4, !tbaa !19
  %.not = icmp eq i32 %15, 0
  br i1 %.not, label %16, label %73

16:                                               ; preds = %3
  store i32 1, ptr %14, align 4, !tbaa !19
  %17 = load i32, ptr %13, align 4
  %.not27 = icmp ult i32 %17, 8
  br i1 %.not27, label %.critedge, label %.lr.ph

.lr.ph:                                           ; preds = %16
  %18 = getelementptr inbounds nuw i8, ptr %13, i64 8
  br label %19

19:                                               ; preds = %.lr.ph, %.thread
  %20 = phi i32 [ %17, %.lr.ph ], [ %38, %.thread ]
  %indvars.iv = phi i64 [ 0, %.lr.ph ], [ %indvars.iv.next, %.thread ]
  %21 = getelementptr inbounds nuw [0 x i32], ptr %18, i64 0, i64 %indvars.iv
  %22 = load i32, ptr %21, align 4, !tbaa !18
  %23 = and i32 %22, 1
  %.not20 = icmp eq i32 %23, 0
  br i1 %.not20, label %24, label %.thread

24:                                               ; preds = %19
  %25 = ashr i32 %22, 2
  %26 = load ptr, ptr %4, align 8, !tbaa !3
  %.val.i.i23 = load i32, ptr %0, align 8, !tbaa !10
  %27 = ashr i32 %25, %.val.i.i23
  %28 = sext i32 %27 to i64
  %29 = getelementptr inbounds ptr, ptr %26, i64 %28
  %30 = load ptr, ptr %29, align 8, !tbaa !11
  %.not21 = icmp eq ptr %30, null
  br i1 %.not21, label %.thread, label %31

31:                                               ; preds = %24
  %.val4.i.i24 = load i32, ptr %10, align 4, !tbaa !13
  %32 = and i32 %.val4.i.i24, %25
  %33 = sext i32 %32 to i64
  %34 = getelementptr inbounds i64, ptr %30, i64 %33
  %35 = getelementptr inbounds nuw i8, ptr %34, i64 4
  %36 = load i32, ptr %35, align 4, !tbaa !19
  %.not22 = icmp eq i32 %36, 0
  br i1 %.not22, label %37, label %.thread

37:                                               ; preds = %31
  tail call void @Proof_CollectUsed_rec(ptr noundef nonnull %0, i32 noundef %25, ptr noundef %2)
  %.pre = load i32, ptr %13, align 4
  br label %.thread

.thread:                                          ; preds = %19, %24, %31, %37
  %38 = phi i32 [ %20, %19 ], [ %20, %24 ], [ %20, %31 ], [ %.pre, %37 ]
  %indvars.iv.next = add nuw nsw i64 %indvars.iv, 1
  %39 = lshr i32 %38, 3
  %40 = zext nneg i32 %39 to i64
  %41 = icmp samesign ult i64 %indvars.iv.next, %40
  br i1 %41, label %19, label %.critedge, !llvm.loop !27

.critedge:                                        ; preds = %.thread, %16
  %42 = getelementptr inbounds nuw i8, ptr %2, i64 4
  %43 = load i32, ptr %42, align 4, !tbaa !14
  %44 = load i32, ptr %2, align 8, !tbaa !23
  %45 = icmp eq i32 %43, %44
  br i1 %45, label %46, label %.Vec_IntGrow.exit10_crit_edge.i

.Vec_IntGrow.exit10_crit_edge.i:                  ; preds = %.critedge
  %.phi.trans.insert.i = getelementptr inbounds nuw i8, ptr %2, i64 8
  %.pre.i = load ptr, ptr %.phi.trans.insert.i, align 8, !tbaa !17
  br label %Vec_IntPush.exit

46:                                               ; preds = %.critedge
  %47 = icmp slt i32 %43, 16
  br i1 %47, label %48, label %56

48:                                               ; preds = %46
  %49 = getelementptr inbounds nuw i8, ptr %2, i64 8
  %50 = load ptr, ptr %49, align 8, !tbaa !17
  %.not9.i.i = icmp eq ptr %50, null
  br i1 %.not9.i.i, label %53, label %51

51:                                               ; preds = %48
  %52 = tail call dereferenceable_or_null(64) ptr @realloc(ptr noundef nonnull %50, i64 noundef 64) #16
  br label %Vec_IntGrow.exit.i

53:                                               ; preds = %48
  %54 = tail call noalias dereferenceable_or_null(64) ptr @malloc(i64 noundef 64) #17
  br label %Vec_IntGrow.exit.i

Vec_IntGrow.exit.i:                               ; preds = %53, %51
  %55 = phi ptr [ %52, %51 ], [ %54, %53 ]
  store ptr %55, ptr %49, align 8, !tbaa !17
  store i32 16, ptr %2, align 8, !tbaa !23
  br label %Vec_IntPush.exit

56:                                               ; preds = %46
  %57 = shl nuw nsw i32 %43, 1
  %58 = getelementptr inbounds nuw i8, ptr %2, i64 8
  %59 = load ptr, ptr %58, align 8, !tbaa !17
  %.not9.i9.i = icmp eq ptr %59, null
  %60 = zext nneg i32 %57 to i64
  %61 = shl nuw nsw i64 %60, 2
  br i1 %.not9.i9.i, label %64, label %62

62:                                               ; preds = %56
  %63 = tail call ptr @realloc(ptr noundef nonnull %59, i64 noundef %61) #16
  br label %66

64:                                               ; preds = %56
  %65 = tail call noalias ptr @malloc(i64 noundef %61) #17
  br label %66

66:                                               ; preds = %64, %62
  %67 = phi ptr [ %63, %62 ], [ %65, %64 ]
  store ptr %67, ptr %58, align 8, !tbaa !17
  store i32 %57, ptr %2, align 8, !tbaa !23
  br label %Vec_IntPush.exit

Vec_IntPush.exit:                                 ; preds = %.Vec_IntGrow.exit10_crit_edge.i, %Vec_IntGrow.exit.i, %66
  %68 = phi ptr [ %.pre.i, %.Vec_IntGrow.exit10_crit_edge.i ], [ %67, %66 ], [ %55, %Vec_IntGrow.exit.i ]
  %69 = load i32, ptr %42, align 4, !tbaa !14
  %70 = add nsw i32 %69, 1
  store i32 %70, ptr %42, align 4, !tbaa !14
  %71 = sext i32 %69 to i64
  %72 = getelementptr inbounds i32, ptr %68, i64 %71
  store i32 %1, ptr %72, align 4, !tbaa !18
  br label %73

73:                                               ; preds = %3, %Vec_IntPush.exit
  ret void
}